target datalayout = "e-m:e-p270:32:32-p271:32:32-p272:64:64-i64:64-i128:128-f80:128-n8:16:32:64-S128"
target triple = "x86_64-pc-linux-gnu"

%struct.tvbuff = type { ptr, ptr, i8, i32, ptr, ptr, i32, i32, i32, i32 }

@.str = private unnamed_addr constant [29 x i8] c"%s:%u: failed assertion \22%s\22\00", align 1
@.str.1 = private unnamed_addr constant [14 x i8] c"epan/tvbuff.c\00", align 1
@.str.5 = private unnamed_addr constant [24 x i8] c"tvb && tvb->initialized\00", align 1
@.str.8 = private unnamed_addr constant [35 x i8] c"tvb->reported_length < tvb->length\00", align 1

; Function Attrs: null_pointer_is_valid sspstrong uwtable
define void @tvb_fix_reported_length(ptr noundef %0) #0 {
  %2 = alloca ptr, align 8
  store ptr %0, ptr %2, align 8
  %3 = load ptr, ptr %2, align 8
  %4 = icmp ne ptr %3, null
  br i1 %4, label %5, label %11

5:                                                ; preds = %1
  %6 = load ptr, ptr %2, align 8
  %7 = getelementptr inbounds nuw %struct.tvbuff, ptr %6, i32 0, i32 2
  %8 = load i8, ptr %7, align 8, !range !9, !noundef !10
  %9 = trunc i8 %8 to i1
  br i1 %9, label %10, label %11

10:                                               ; preds = %5
  br label %13

11:                                               ; preds = %5, %1
  call void (ptr, ...) @proto_report_dissector_bug(ptr noundef @.str, ptr noundef @.str.1, i32 noundef 814, ptr noundef @.str.5) #18
  unreachable

12:                                               ; No predecessors!
  br label %13

13:                                               ; preds = %12, %10
  %14 = load ptr, ptr %2, align 8
  %15 = getelementptr inbounds nuw %struct.tvbuff, ptr %14, i32 0, i32 7
  %16 = load i32, ptr %15, align 4
  %17 = load ptr, ptr %2, align 8
  %18 = getelementptr inbounds nuw %struct.tvbuff, ptr %17, i32 0, i32 6
  %19 = load i32, ptr %18, align 8
  %20 = icmp ult i32 %16, %19
  br i1 %20, label %21, label %22

21:                                               ; preds = %13
  br label %24

22:                                               ; preds = %13
  call void (ptr, ...) @proto_report_dissector_bug(ptr noundef @.str, ptr noundef @.str.1, i32 noundef 815, ptr noundef @.str.8) #18
  unreachable

23:                                               ; No predecessors!
  br label %24

24:                                               ; preds = %23, %21
  %25 = load ptr, ptr %2, align 8
  %26 = getelementptr inbounds nuw %struct.tvbuff, ptr %25, i32 0, i32 6
  %27 = load i32, ptr %26, align 8
  %28 = load ptr, ptr %2, align 8
  %29 = getelementptr inbounds nuw %struct.tvbuff, ptr %28, i32 0, i32 7
  store i32 %27, ptr %29, align 4
  %30 = load ptr, ptr %2, align 8
  %31 = getelementptr inbounds nuw %struct.tvbuff, ptr %30, i32 0, i32 8
  %32 = load i32, ptr %31, align 8
  %33 = load ptr, ptr %2, align 8
  %34 = getelementptr inbounds nuw %struct.tvbuff, ptr %33, i32 0, i32 6
  %35 = load i32, ptr %34, align 8
  %36 = icmp ult i32 %32, %35
  br i1 %36, label %37, label %43

37:                                               ; preds = %24
  %38 = load ptr, ptr %2, align 8
  %39 = getelementptr inbounds nuw %struct.tvbuff, ptr %38, i32 0, i32 6
  %40 = load i32, ptr %39, align 8
  %41 = load ptr, ptr %2, align 8
  %42 = getelementptr inbounds nuw %struct.tvbuff, ptr %41, i32 0, i32 8
  store i32 %40, ptr %42, align 8
  br label %43

43:                                               ; preds = %37, %24
  ret void
}