; Function Attrs: null_pointer_is_valid sspstrong uwtable
define void @tvb_fix_reported_length(ptr noundef captures(address_is_null) %0) local_unnamed_addr #0 {
  %.not = icmp eq ptr %0, null
  br i1 %.not, label %6, label %2

2:                                                ; preds = %1
  %3 = getelementptr inbounds nuw i8, ptr %0, i64 16
  %4 = load i8, ptr %3, align 8, !range !9, !noundef !10
  %5 = trunc nuw i8 %4 to i1
  br i1 %5, label %7, label %6

6:                                                ; preds = %2, %1
  tail call void (ptr, ...) @proto_report_dissector_bug(ptr noundef nonnull @.str, ptr noundef nonnull @.str.1, i32 noundef 814, ptr noundef nonnull @.str.5) #18
  unreachable

7:                                                ; preds = %2
  %8 = getelementptr inbounds nuw i8, ptr %0, i64 44
  %9 = load i32, ptr %8, align 4
  %10 = getelementptr inbounds nuw i8, ptr %0, i64 40
  %11 = load i32, ptr %10, align 8
  %12 = icmp ult i32 %9, %11
  br i1 %12, label %14, label %13

13:                                               ; preds = %7
  tail call void (ptr, ...) @proto_report_dissector_bug(ptr noundef nonnull @.str, ptr noundef nonnull @.str.1, i32 noundef 815, ptr noundef nonnull @.str.8) #18
  unreachable

14:                                               ; preds = %7
  store i32 %11, ptr %8, align 4
  %15 = getelementptr inbounds nuw i8, ptr %0, i64 48
  %16 = load i32, ptr %15, align 8
  %17 = icmp ult i32 %16, %11
  br i1 %17, label %18, label %19

18:                                               ; preds = %14
  store i32 %11, ptr %15, align 8
  br label %19

19:                                               ; preds = %18, %14
  ret void
}